; ModuleID = '57/3183.c'
source_filename = "57/3183.c"
target datalayout = "e-m:e-p270:32:32-p271:32:32-p272:64:64-i64:64-f80:128-n8:16:32:64-S128"
target triple = "x86_64-pc-linux-gnu"

@.str = private unnamed_addr constant [3 x i8] c"%d\00", align 1
@.str.1 = private unnamed_addr constant [3 x i8] c"%s\00", align 1
@.str.2 = private unnamed_addr constant [4 x i8] c"ing\00", align 1
@.str.3 = private unnamed_addr constant [3 x i8] c"er\00", align 1
@.str.4 = private unnamed_addr constant [3 x i8] c"ly\00", align 1
@.str.5 = private unnamed_addr constant [4 x i8] c"%s\0A\00", align 1

; Function Attrs: noinline nounwind uwtable
define dso_local i32 @main() #0 {
  %1 = alloca i32, align 4
  %2 = alloca i32, align 4
  %3 = alloca i32, align 4
  %4 = alloca i32, align 4
  %5 = alloca [33 x i8], align 16
  store i32 0, i32* %1, align 4
  %6 = call i32 (i8*, ...) @__isoc99_scanf(i8* getelementptr inbounds ([3 x i8], [3 x i8]* @.str, i64 0, i64 0), i32* %2)
  store i32 1, i32* %3, align 4
  br label %7

7:                                                ; preds = %56, %0
  %8 = load i32, i32* %3, align 4
  %9 = load i32, i32* %2, align 4
  %10 = icmp sle i32 %8, %9
  br i1 %10, label %11, label %59

11:                                               ; preds = %7
  %12 = call i32 (i8*, ...) @__isoc99_scanf(i8* getelementptr inbounds ([3 x i8], [3 x i8]* @.str.1, i64 0, i64 0), [33 x i8]* %5)
  %13 = getelementptr inbounds [33 x i8], [33 x i8]* %5, i64 0, i64 0
  %14 = call i64 @strlen(i8* %13) #3
  %15 = trunc i64 %14 to i32
  store i32 %15, i32* %4, align 4
  %16 = load i32, i32* %4, align 4
  %17 = sub nsw i32 %16, 3
  %18 = sext i32 %17 to i64
  %19 = getelementptr inbounds [33 x i8], [33 x i8]* %5, i64 0, i64 %18
  %20 = call i32 @strcmp(i8* %19, i8* getelementptr inbounds ([4 x i8], [4 x i8]* @.str.2, i64 0, i64 0)) #3
  %21 = icmp eq i32 %20, 0
  br i1 %21, label %22, label %27

22:                                               ; preds = %11
  %23 = load i32, i32* %4, align 4
  %24 = sub nsw i32 %23, 3
  %25 = sext i32 %24 to i64
  %26 = getelementptr inbounds [33 x i8], [33 x i8]* %5, i64 0, i64 %25
  store i8 0, i8* %26, align 1
  br label %53

27:                                               ; preds = %11
  %28 = load i32, i32* %4, align 4
  %29 = sub nsw i32 %28, 2
  %30 = sext i32 %29 to i64
  %31 = getelementptr inbounds [33 x i8], [33 x i8]* %5, i64 0, i64 %30
  %32 = call i32 @strcmp(i8* %31, i8* getelementptr inbounds ([3 x i8], [3 x i8]* @.str.3, i64 0, i64 0)) #3
  %33 = icmp eq i32 %32, 0
  br i1 %33, label %34, label %39

34:                                               ; preds = %27
  %35 = load i32, i32* %4, align 4
  %36 = sub nsw i32 %35, 2
  %37 = sext i32 %36 to i64
  %38 = getelementptr inbounds [33 x i8], [33 x i8]* %5, i64 0, i64 %37
  store i8 0, i8* %38, align 1
  br label %52

39:                                               ; preds = %27
  %40 = load i32, i32* %4, align 4
  %41 = sub nsw i32 %40, 2
  %42 = sext i32 %41 to i64
  %43 = getelementptr inbounds [33 x i8], [33 x i8]* %5, i64 0, i64 %42
  %44 = call i32 @strcmp(i8* %43, i8* getelementptr inbounds ([3 x i8], [3 x i8]* @.str.4, i64 0, i64 0)) #3
  %45 = icmp eq i32 %44, 0
  br i1 %45, label %46, label %51

46:                                               ; preds = %39
  %47 = load i32, i32* %4, align 4
  %48 = sub nsw i32 %47, 2
  %49 = sext i32 %48 to i64
  %50 = getelementptr inbounds [33 x i8], [33 x i8]* %5, i64 0, i64 %49
  store i8 0, i8* %50, align 1
  br label %51

51:                                               ; preds = %46, %39
  br label %52

52:                                               ; preds = %51, %34
  br label %53

53:                                               ; preds = %52, %22
  %54 = getelementptr inbounds [33 x i8], [33 x i8]* %5, i64 0, i64 0
  %55 = call i32 (i8*, ...) @printf(i8* getelementptr inbounds ([4 x i8], [4 x i8]* @.str.5, i64 0, i64 0), i8* %54)
  br label %56

56:                                               ; preds = %53
  %57 = load i32, i32* %3, align 4
  %58 = add nsw i32 %57, 1
  store i32 %58, i32* %3, align 4
  br label %7

59:                                               ; preds = %7
  ret i32 0
}

declare dso_local i32 @__isoc99_scanf(i8*, ...) #1

; Function Attrs: nounwind readonly
declare dso_local i64 @strlen(i8*) #2

; Function Attrs: nounwind readonly
declare dso_local i32 @strcmp(i8*, i8*) #2

declare dso_local i32 @printf(i8*, ...) #1


!llvm.module.flags = !{!0}
!llvm.ident = !{!1}

!0 = !{i32 1, !"wchar_size", i32 4}
!1 = !{!"clang version 10.0.0-4ubuntu1 "}
